target datalayout = "e-m:e-p270:32:32-p271:32:32-p272:64:64-i64:64-i128:128-f80:128-n8:16:32:64-S128"
target triple = "x86_64-pc-linux-gnu"

%"class.icu_77::ChineseCalendar" = type { %"class.icu_77::Calendar", i8, [7 x i8] }
%"class.icu_77::Calendar" = type <{ %"class.icu_77::UObject", [24 x i32], [24 x i8], i8, [7 x i8], double, ptr, i8, i16, i8, i32, i32, i32, i8, i8, i16, [4 x i8], ptr, ptr }>
%"class.icu_77::UObject" = type { ptr }
%"struct.icu_77::ChineseCalendar::Setting" = type { i32, ptr, ptr, ptr }
%"struct.icu_77::(anonymous namespace)::MonthInfo" = type { i32, i32, i32, i8, i8 }

; Function Attrs: inlinehint mustprogress nounwind uwtable
define linkonce_odr void @_ZN6icu_778Calendar11internalSetE19UCalendarDateFieldsi(ptr noundef nonnull align 8 dereferenceable(192) %0, i32 noundef %1, i32 noundef %2) #4 comdat align 2 {
  %4 = alloca ptr, align 8
  %5 = alloca i32, align 4
  %6 = alloca i32, align 4
  store ptr %0, ptr %4, align 8, !tbaa !36
  store i32 %1, ptr %5, align 4, !tbaa !25
  store i32 %2, ptr %6, align 4, !tbaa !29
  %7 = load ptr, ptr %4, align 8
  %8 = load i32, ptr %6, align 4, !tbaa !29
  %9 = getelementptr inbounds nuw %"class.icu_77::Calendar", ptr %7, i32 0, i32 1
  %10 = load i32, ptr %5, align 4, !tbaa !25
  %11 = zext i32 %10 to i64
  %12 = getelementptr inbounds nuw [24 x i32], ptr %9, i64 0, i64 %11
  store i32 %8, ptr %12, align 4, !tbaa !29
  %13 = getelementptr inbounds nuw %"class.icu_77::Calendar", ptr %7, i32 0, i32 2
  %14 = load i32, ptr %5, align 4, !tbaa !25
  %15 = zext i32 %14 to i64
  %16 = getelementptr inbounds nuw [24 x i8], ptr %13, i64 0, i64 %15
  store i8 1, ptr %16, align 1, !tbaa !38
  ret void
}

; Function Attrs: mustprogress nounwind uwtable
define linkonce_odr noundef i32 @_ZNK6icu_778Calendar17getGregorianMonthEv(ptr noundef nonnull align 8 dereferenceable(192) %0) #3 comdat align 2 {
  %2 = alloca ptr, align 8
  store ptr %0, ptr %2, align 8, !tbaa !36
  %3 = load ptr, ptr %2, align 8
  %4 = getelementptr inbounds nuw %"class.icu_77::Calendar", ptr %3, i32 0, i32 13
  %5 = load i8, ptr %4, align 8, !tbaa !61
  %6 = sext i8 %5 to i32
  ret i32 %6
}

; Function Attrs: mustprogress nounwind uwtable
define linkonce_odr noundef i32 @_ZNK6icu_778Calendar16getGregorianYearEv(ptr noundef nonnull align 8 dereferenceable(192) %0) #3 comdat align 2 {
  %2 = alloca ptr, align 8
  store ptr %0, ptr %2, align 8, !tbaa !36
  %3 = load ptr, ptr %2, align 8
  %4 = getelementptr inbounds nuw %"class.icu_77::Calendar", ptr %3, i32 0, i32 12
  %5 = load i32, ptr %4, align 4, !tbaa !60
  ret i32 %5
}

; Function Attrs: inlinehint mustprogress nounwind uwtable
define internal noundef signext i8 @_ZL9U_FAILURE10UErrorCode(i32 noundef %0) #4 {
  %2 = alloca i32, align 4
  store i32 %0, ptr %2, align 4, !tbaa !30
  %3 = load i32, ptr %2, align 4, !tbaa !30
  %4 = icmp sgt i32 %3, 0
  %5 = zext i1 %4 to i8
  ret i8 %5
}

; Function Attrs: mustprogress uwtable
define void @_ZN6icu_7715ChineseCalendar19handleComputeFieldsEiR10UErrorCode(ptr noundef nonnull align 8 dereferenceable(193) %0, i32 noundef %1, ptr noundef nonnull align 4 dereferenceable(4) %2) unnamed_addr #0 align 2 {
  %4 = alloca ptr, align 8
  %5 = alloca i32, align 4
  %6 = alloca ptr, align 8
  %7 = alloca i32, align 4
  %8 = alloca i32, align 4
  %9 = alloca i32, align 4
  %10 = alloca i32, align 4
  %11 = alloca %"struct.icu_77::ChineseCalendar::Setting", align 8
  %12 = alloca %"struct.icu_77::(anonymous namespace)::MonthInfo", align 4
  %13 = alloca i32, align 4
  %14 = alloca i32, align 4
  %15 = alloca i32, align 4
  %16 = alloca i32, align 4
  %17 = alloca i32, align 4
  %18 = alloca i32, align 4
  %19 = alloca i32, align 4
  %20 = alloca i32, align 4
  %21 = alloca i32, align 4
  store ptr %0, ptr %4, align 8, !tbaa !3
  store i32 %1, ptr %5, align 4, !tbaa !29
  store ptr %2, ptr %6, align 8, !tbaa !10
  %22 = load ptr, ptr %4, align 8
  %23 = load ptr, ptr %6, align 8, !tbaa !10
  %24 = load i32, ptr %23, align 4, !tbaa !30
  %25 = call noundef signext i8 @_ZL9U_FAILURE10UErrorCode(i32 noundef %24)
  %26 = icmp ne i8 %25, 0
  br i1 %26, label %27, label %28

27:                                               ; preds = %3
  br label %175

28:                                               ; preds = %3
  call void @llvm.lifetime.start.p0(i64 4, ptr %7) #13
  %29 = load i32, ptr %5, align 4, !tbaa !29
  %30 = call signext i8 @uprv_add32_overflow_77(i32 noundef %29, i32 noundef -2440588, ptr noundef %7)
  %31 = icmp ne i8 %30, 0
  br i1 %31, label %32, label %34

32:                                               ; preds = %28
  %33 = load ptr, ptr %6, align 8, !tbaa !10
  store i32 1, ptr %33, align 4, !tbaa !30
  store i32 1, ptr %8, align 4
  br label %173

34:                                               ; preds = %28
  call void @llvm.lifetime.start.p0(i64 4, ptr %9) #13
  %35 = call noundef i32 @_ZNK6icu_778Calendar16getGregorianYearEv(ptr noundef nonnull align 8 dereferenceable(192) %22)
  store i32 %35, ptr %9, align 4, !tbaa !29
  call void @llvm.lifetime.start.p0(i64 4, ptr %10) #13
  %36 = call noundef i32 @_ZNK6icu_778Calendar17getGregorianMonthEv(ptr noundef nonnull align 8 dereferenceable(192) %22)
  store i32 %36, ptr %10, align 4, !tbaa !29
  call void @llvm.lifetime.start.p0(i64 32, ptr %11) #13
  %37 = load ptr, ptr %6, align 8, !tbaa !10
  %38 = load ptr, ptr %22, align 8, !tbaa !11
  %39 = getelementptr inbounds ptr, ptr %38, i64 57
  %40 = load ptr, ptr %39, align 8
  call void %40(ptr dead_on_unwind writable sret(%"struct.icu_77::ChineseCalendar::Setting") align 8 %11, ptr noundef nonnull align 8 dereferenceable(193) %22, ptr noundef nonnull align 4 dereferenceable(4) %37)
  %41 = load ptr, ptr %6, align 8, !tbaa !10
  %42 = load i32, ptr %41, align 4, !tbaa !30
  %43 = call noundef signext i8 @_ZL9U_FAILURE10UErrorCode(i32 noundef %42)
  %44 = icmp ne i8 %43, 0
  br i1 %44, label %45, label %46

45:                                               ; preds = %34
  store i32 1, ptr %8, align 4
  br label %172

46:                                               ; preds = %34
  call void @llvm.lifetime.start.p0(i64 16, ptr %12) #13
  %47 = load i32, ptr %9, align 4, !tbaa !29
  %48 = load i32, ptr %7, align 4, !tbaa !29
  %49 = load ptr, ptr %6, align 8, !tbaa !10
  %50 = call { i64, i64 } @_ZN6icu_7712_GLOBAL__N_116computeMonthInfoERKNS_15ChineseCalendar7SettingEiiR10UErrorCode(ptr noundef nonnull align 8 dereferenceable(32) %11, i32 noundef %47, i32 noundef %48, ptr noundef nonnull align 4 dereferenceable(4) %49)
  %51 = getelementptr inbounds nuw { i64, i64 }, ptr %12, i32 0, i32 0
  %52 = extractvalue { i64, i64 } %50, 0
  store i64 %52, ptr %51, align 4
  %53 = getelementptr inbounds nuw { i64, i64 }, ptr %12, i32 0, i32 1
  %54 = extractvalue { i64, i64 } %50, 1
  store i64 %54, ptr %53, align 4
  %55 = load ptr, ptr %6, align 8, !tbaa !10
  %56 = load i32, ptr %55, align 4, !tbaa !30
  %57 = call noundef signext i8 @_ZL9U_FAILURE10UErrorCode(i32 noundef %56)
  %58 = icmp ne i8 %57, 0
  br i1 %58, label %59, label %60

59:                                               ; preds = %46
  store i32 1, ptr %8, align 4
  br label %171

60:                                               ; preds = %46
  %61 = getelementptr inbounds nuw %"struct.icu_77::(anonymous namespace)::MonthInfo", ptr %12, i32 0, i32 4
  %62 = load i8, ptr %61, align 1, !tbaa !52, !range !40, !noundef !41
  %63 = trunc i8 %62 to i1
  %64 = zext i1 %63 to i8
  %65 = getelementptr inbounds nuw %"class.icu_77::ChineseCalendar", ptr %22, i32 0, i32 1
  store i8 %64, ptr %65, align 8, !tbaa !13
  call void @llvm.lifetime.start.p0(i64 4, ptr %13) #13
  %66 = load i32, ptr %9, align 4, !tbaa !29
  %67 = getelementptr inbounds nuw %"struct.icu_77::ChineseCalendar::Setting", ptr %11, i32 0, i32 0
  %68 = load i32, ptr %67, align 8, !tbaa !32
  %69 = sub nsw i32 %66, %68
  store i32 %69, ptr %13, align 4, !tbaa !29
  call void @llvm.lifetime.start.p0(i64 4, ptr %14) #13
  %70 = load i32, ptr %9, align 4, !tbaa !29
  %71 = sub nsw i32 %70, -2636
  store i32 %71, ptr %14, align 4, !tbaa !29
  %72 = getelementptr inbounds nuw %"struct.icu_77::(anonymous namespace)::MonthInfo", ptr %12, i32 0, i32 0
  %73 = load i32, ptr %72, align 4, !tbaa !43
  %74 = icmp slt i32 %73, 11
  br i1 %74, label %78, label %75

75:                                               ; preds = %60
  %76 = load i32, ptr %10, align 4, !tbaa !29
  %77 = icmp sge i32 %76, 6
  br i1 %77, label %78, label %83

78:                                               ; preds = %75, %60
  %79 = load i32, ptr %13, align 4, !tbaa !29
  %80 = add nsw i32 %79, 1
  store i32 %80, ptr %13, align 4, !tbaa !29
  %81 = load i32, ptr %14, align 4, !tbaa !29
  %82 = add nsw i32 %81, 1
  store i32 %82, ptr %14, align 4, !tbaa !29
  br label %83

83:                                               ; preds = %78, %75
  call void @llvm.lifetime.start.p0(i64 4, ptr %15) #13
  %84 = load i32, ptr %7, align 4, !tbaa !29
  %85 = getelementptr inbounds nuw %"struct.icu_77::(anonymous namespace)::MonthInfo", ptr %12, i32 0, i32 2
  %86 = load i32, ptr %85, align 4, !tbaa !51
  %87 = sub nsw i32 %84, %86
  %88 = add nsw i32 %87, 1
  store i32 %88, ptr %15, align 4, !tbaa !29
  call void @llvm.lifetime.start.p0(i64 4, ptr %16) #13
  call void @llvm.lifetime.start.p0(i64 4, ptr %17) #13
  %89 = load i32, ptr %14, align 4, !tbaa !29
  %90 = sub nsw i32 %89, 1
  %91 = call noundef i32 @_ZN6icu_779ClockMath11floorDivideEiiPi(i32 noundef %90, i32 noundef 60, ptr noundef %16)
  store i32 %91, ptr %17, align 4, !tbaa !29
  call void @llvm.lifetime.start.p0(i64 4, ptr %18) #13
  %92 = load i32, ptr %9, align 4, !tbaa !29
  %93 = load ptr, ptr %6, align 8, !tbaa !10
  %94 = call noundef i32 @_ZN6icu_7712_GLOBAL__N_17newYearERKNS_15ChineseCalendar7SettingEiR10UErrorCode(ptr noundef nonnull align 8 dereferenceable(32) %11, i32 noundef %92, ptr noundef nonnull align 4 dereferenceable(4) %93)
  store i32 %94, ptr %18, align 4, !tbaa !29
  %95 = load ptr, ptr %6, align 8, !tbaa !10
  %96 = load i32, ptr %95, align 4, !tbaa !30
  %97 = call noundef signext i8 @_ZL9U_FAILURE10UErrorCode(i32 noundef %96)
  %98 = icmp ne i8 %97, 0
  br i1 %98, label %99, label %100

99:                                               ; preds = %83
  store i32 1, ptr %8, align 4
  br label %170

100:                                              ; preds = %83
  %101 = load i32, ptr %7, align 4, !tbaa !29
  %102 = load i32, ptr %18, align 4, !tbaa !29
  %103 = icmp slt i32 %101, %102
  br i1 %103, label %104, label %109

104:                                              ; preds = %100
  %105 = load i32, ptr %9, align 4, !tbaa !29
  %106 = sub nsw i32 %105, 1
  %107 = load ptr, ptr %6, align 8, !tbaa !10
  %108 = call noundef i32 @_ZN6icu_7712_GLOBAL__N_17newYearERKNS_15ChineseCalendar7SettingEiR10UErrorCode(ptr noundef nonnull align 8 dereferenceable(32) %11, i32 noundef %106, ptr noundef nonnull align 4 dereferenceable(4) %107)
  store i32 %108, ptr %18, align 4, !tbaa !29
  br label %109

109:                                              ; preds = %104, %100
  %110 = load ptr, ptr %6, align 8, !tbaa !10
  %111 = load i32, ptr %110, align 4, !tbaa !30
  %112 = call noundef signext i8 @_ZL9U_FAILURE10UErrorCode(i32 noundef %111)
  %113 = icmp ne i8 %112, 0
  br i1 %113, label %114, label %115

114:                                              ; preds = %109
  store i32 1, ptr %8, align 4
  br label %170

115:                                              ; preds = %109
  %116 = load i32, ptr %17, align 4, !tbaa !29
  %117 = add nsw i32 %116, 1
  store i32 %117, ptr %17, align 4, !tbaa !29
  %118 = load i32, ptr %16, align 4, !tbaa !29
  %119 = add nsw i32 %118, 1
  store i32 %119, ptr %16, align 4, !tbaa !29
  call void @llvm.lifetime.start.p0(i64 4, ptr %19) #13
  %120 = load i32, ptr %7, align 4, !tbaa !29
  %121 = load i32, ptr %18, align 4, !tbaa !29
  %122 = sub nsw i32 %120, %121
  %123 = add nsw i32 %122, 1
  store i32 %123, ptr %19, align 4, !tbaa !29
  call void @llvm.lifetime.start.p0(i64 4, ptr %20) #13
  %124 = load ptr, ptr %22, align 8, !tbaa !11
  %125 = getelementptr inbounds ptr, ptr %124, i64 37
  %126 = load ptr, ptr %125, align 8
  %127 = call noundef i32 %126(ptr noundef nonnull align 8 dereferenceable(193) %22, i32 noundef 19, i32 noundef 0)
  store i32 %127, ptr %20, align 4, !tbaa !29
  %128 = load i32, ptr %13, align 4, !tbaa !29
  %129 = load i32, ptr %20, align 4, !tbaa !29
  %130 = icmp slt i32 %128, %129
  br i1 %130, label %131, label %138

131:                                              ; preds = %115
  %132 = call noundef signext i8 @_ZNK6icu_778Calendar9isLenientEv(ptr noundef nonnull align 8 dereferenceable(192) %22)
  %133 = icmp ne i8 %132, 0
  br i1 %133, label %136, label %134

134:                                              ; preds = %131
  %135 = load ptr, ptr %6, align 8, !tbaa !10
  store i32 1, ptr %135, align 4, !tbaa !30
  store i32 1, ptr %8, align 4
  br label %169

136:                                              ; preds = %131
  %137 = load i32, ptr %20, align 4, !tbaa !29
  store i32 %137, ptr %13, align 4, !tbaa !29
  br label %138

138:                                              ; preds = %136, %115
  call void @llvm.lifetime.start.p0(i64 4, ptr %21) #13
  %139 = load ptr, ptr %22, align 8, !tbaa !11
  %140 = getelementptr inbounds ptr, ptr %139, i64 37
  %141 = load ptr, ptr %140, align 8
  %142 = call noundef i32 %141(ptr noundef nonnull align 8 dereferenceable(193) %22, i32 noundef 19, i32 noundef 3)
  store i32 %142, ptr %21, align 4, !tbaa !29
  %143 = load i32, ptr %21, align 4, !tbaa !29
  %144 = load i32, ptr %13, align 4, !tbaa !29
  %145 = icmp slt i32 %143, %144
  br i1 %145, label %146, label %153

146:                                              ; preds = %138
  %147 = call noundef signext i8 @_ZNK6icu_778Calendar9isLenientEv(ptr noundef nonnull align 8 dereferenceable(192) %22)
  %148 = icmp ne i8 %147, 0
  br i1 %148, label %151, label %149

149:                                              ; preds = %146
  %150 = load ptr, ptr %6, align 8, !tbaa !10
  store i32 1, ptr %150, align 4, !tbaa !30
  store i32 1, ptr %8, align 4
  br label %168

151:                                              ; preds = %146
  %152 = load i32, ptr %21, align 4, !tbaa !29
  store i32 %152, ptr %13, align 4, !tbaa !29
  br label %153

153:                                              ; preds = %151, %138
  %154 = getelementptr inbounds nuw %"struct.icu_77::(anonymous namespace)::MonthInfo", ptr %12, i32 0, i32 0
  %155 = load i32, ptr %154, align 4, !tbaa !43
  %156 = sub nsw i32 %155, 1
  call void @_ZN6icu_778Calendar11internalSetE19UCalendarDateFieldsi(ptr noundef nonnull align 8 dereferenceable(192) %22, i32 noundef 2, i32 noundef %156)
  %157 = getelementptr inbounds nuw %"struct.icu_77::(anonymous namespace)::MonthInfo", ptr %12, i32 0, i32 1
  %158 = load i32, ptr %157, align 4, !tbaa !53
  call void @_ZN6icu_778Calendar11internalSetE19UCalendarDateFieldsi(ptr noundef nonnull align 8 dereferenceable(192) %22, i32 noundef 23, i32 noundef %158)
  %159 = getelementptr inbounds nuw %"struct.icu_77::(anonymous namespace)::MonthInfo", ptr %12, i32 0, i32 3
  %160 = load i8, ptr %159, align 4, !tbaa !45, !range !40, !noundef !41
  %161 = trunc i8 %160 to i1
  %162 = select i1 %161, i32 1, i32 0
  call void @_ZN6icu_778Calendar11internalSetE19UCalendarDateFieldsi(ptr noundef nonnull align 8 dereferenceable(192) %22, i32 noundef 22, i32 noundef %162)
  %163 = load i32, ptr %13, align 4, !tbaa !29
  call void @_ZN6icu_778Calendar11internalSetE19UCalendarDateFieldsi(ptr noundef nonnull align 8 dereferenceable(192) %22, i32 noundef 19, i32 noundef %163)
  %164 = load i32, ptr %17, align 4, !tbaa !29
  call void @_ZN6icu_778Calendar11internalSetE19UCalendarDateFieldsi(ptr noundef nonnull align 8 dereferenceable(192) %22, i32 noundef 0, i32 noundef %164)
  %165 = load i32, ptr %16, align 4, !tbaa !29
  call void @_ZN6icu_778Calendar11internalSetE19UCalendarDateFieldsi(ptr noundef nonnull align 8 dereferenceable(192) %22, i32 noundef 1, i32 noundef %165)
  %166 = load i32, ptr %15, align 4, !tbaa !29
  call void @_ZN6icu_778Calendar11internalSetE19UCalendarDateFieldsi(ptr noundef nonnull align 8 dereferenceable(192) %22, i32 noundef 5, i32 noundef %166)
  %167 = load i32, ptr %19, align 4, !tbaa !29
  call void @_ZN6icu_778Calendar11internalSetE19UCalendarDateFieldsi(ptr noundef nonnull align 8 dereferenceable(192) %22, i32 noundef 6, i32 noundef %167)
  store i32 0, ptr %8, align 4
  br label %168

168:                                              ; preds = %153, %149
  call void @llvm.lifetime.end.p0(i64 4, ptr %21) #13
  br label %169

169:                                              ; preds = %168, %134
  call void @llvm.lifetime.end.p0(i64 4, ptr %20) #13
  call void @llvm.lifetime.end.p0(i64 4, ptr %19) #13
  br label %170

170:                                              ; preds = %169, %114, %99
  call void @llvm.lifetime.end.p0(i64 4, ptr %18) #13
  call void @llvm.lifetime.end.p0(i64 4, ptr %17) #13
  call void @llvm.lifetime.end.p0(i64 4, ptr %16) #13
  call void @llvm.lifetime.end.p0(i64 4, ptr %15) #13
  call void @llvm.lifetime.end.p0(i64 4, ptr %14) #13
  call void @llvm.lifetime.end.p0(i64 4, ptr %13) #13
  br label %171

171:                                              ; preds = %170, %59
  call void @llvm.lifetime.end.p0(i64 16, ptr %12) #13
  br label %172

172:                                              ; preds = %171, %45
  call void @llvm.lifetime.end.p0(i64 32, ptr %11) #13
  call void @llvm.lifetime.end.p0(i64 4, ptr %10) #13
  call void @llvm.lifetime.end.p0(i64 4, ptr %9) #13
  br label %173

173:                                              ; preds = %172, %32
  call void @llvm.lifetime.end.p0(i64 4, ptr %7) #13
  %174 = load i32, ptr %8, align 4
  switch i32 %174, label %176 [
    i32 0, label %175
    i32 1, label %175
  ]

175:                                              ; preds = %27, %173, %173
  ret void

176:                                              ; preds = %173
  unreachable
}