; Function Attrs: mustprogress uwtable
define void @_ZN6icu_7715ChineseCalendar19handleComputeFieldsEiR10UErrorCode(ptr noundef nonnull align 8 dereferenceable(193) %0, i32 noundef %1, ptr noundef nonnull align 4 dereferenceable(4) %2) unnamed_addr #0 align 2 {
  %4 = alloca i32, align 4
  %5 = alloca %"struct.icu_77::ChineseCalendar::Setting", align 8
  %6 = alloca i32, align 4
  %7 = load i32, ptr %2, align 4, !tbaa !21
  %8 = icmp slt i32 %7, 1
  br i1 %8, label %9, label %99

9:                                                ; preds = %3
  call void @llvm.lifetime.start.p0(i64 4, ptr nonnull %4) #8
  %10 = call signext i8 @uprv_add32_overflow_77(i32 noundef %1, i32 noundef -2440588, ptr noundef nonnull %4)
  %.not43 = icmp eq i8 %10, 0
  br i1 %.not43, label %12, label %11

11:                                               ; preds = %9
  store i32 1, ptr %2, align 4, !tbaa !21
  br label %98

12:                                               ; preds = %9
  %13 = getelementptr inbounds nuw i8, ptr %0, i64 164
  %14 = load i32, ptr %13, align 4, !tbaa !33
  %15 = getelementptr inbounds nuw i8, ptr %0, i64 168
  %16 = load i8, ptr %15, align 8, !tbaa !34
  call void @llvm.lifetime.start.p0(i64 32, ptr nonnull %5) #8
  %17 = load ptr, ptr %0, align 8, !tbaa !3
  %18 = getelementptr inbounds nuw i8, ptr %17, i64 456
  %19 = load ptr, ptr %18, align 8
  call void %19(ptr dead_on_unwind nonnull writable sret(%"struct.icu_77::ChineseCalendar::Setting") align 8 %5, ptr noundef nonnull align 8 dereferenceable(193) %0, ptr noundef nonnull align 4 dereferenceable(4) %2)
  %20 = load i32, ptr %2, align 4, !tbaa !21
  %21 = icmp slt i32 %20, 1
  br i1 %21, label %22, label %97

22:                                               ; preds = %12
  %23 = load i32, ptr %4, align 4, !tbaa !20
  %24 = call fastcc { i64, i64 } @_ZN6icu_7712_GLOBAL__N_116computeMonthInfoERKNS_15ChineseCalendar7SettingEiiR10UErrorCode(ptr noundef nonnull align 8 dereferenceable(32) %5, i32 noundef %14, i32 noundef %23, ptr noundef nonnull align 4 dereferenceable(4) %2)
  %25 = extractvalue { i64, i64 } %24, 0
  %26 = extractvalue { i64, i64 } %24, 1
  %27 = load i32, ptr %2, align 4, !tbaa !21
  %28 = icmp slt i32 %27, 1
  br i1 %28, label %29, label %97

29:                                               ; preds = %22
  %30 = lshr i64 %26, 40
  %31 = trunc i64 %30 to i8
  %32 = and i8 %31, 1
  %33 = getelementptr inbounds nuw i8, ptr %0, i64 192
  store i8 %32, ptr %33, align 8, !tbaa !6
  %34 = load i32, ptr %5, align 8, !tbaa !24
  %35 = sub nsw i32 %14, %34
  %.sroa.0.0.extract.trunc = trunc i64 %25 to i32
  %36 = icmp slt i32 %.sroa.0.0.extract.trunc, 11
  %37 = icmp sgt i8 %16, 5
  %or.cond = or i1 %37, %36
  %.038.v = select i1 %or.cond, i32 2637, i32 2636
  %38 = zext i1 %or.cond to i32
  %.0 = add nsw i32 %35, %38
  %39 = load i32, ptr %4, align 4, !tbaa !20
  %.sroa.6.8.extract.trunc = trunc i64 %26 to i32
  %reass.sub = sub i32 %39, %.sroa.6.8.extract.trunc
  %40 = add i32 %reass.sub, 1
  call void @llvm.lifetime.start.p0(i64 4, ptr nonnull %6) #8
  %.038 = add i32 %14, -1
  %41 = add i32 %.038, %.038.v
  %42 = call noundef i32 @_ZN6icu_779ClockMath11floorDivideEiiPi(i32 noundef %41, i32 noundef 60, ptr noundef nonnull %6)
  %43 = call fastcc noundef i32 @_ZN6icu_7712_GLOBAL__N_17newYearERKNS_15ChineseCalendar7SettingEiR10UErrorCode(ptr noundef nonnull align 8 dereferenceable(32) %5, i32 noundef %14, ptr noundef nonnull align 4 dereferenceable(4) %2)
  %44 = load i32, ptr %2, align 4, !tbaa !21
  %45 = icmp slt i32 %44, 1
  br i1 %45, label %46, label %96

46:                                               ; preds = %29
  %47 = load i32, ptr %4, align 4, !tbaa !20
  %48 = icmp slt i32 %47, %43
  br i1 %48, label %49, label %.thread

49:                                               ; preds = %46
  %50 = call fastcc noundef i32 @_ZN6icu_7712_GLOBAL__N_17newYearERKNS_15ChineseCalendar7SettingEiR10UErrorCode(ptr noundef nonnull align 8 dereferenceable(32) %5, i32 noundef %.038, ptr noundef nonnull align 4 dereferenceable(4) %2)
  %.pre = load i32, ptr %2, align 4, !tbaa !21
  %51 = icmp slt i32 %.pre, 1
  br i1 %51, label %.thread, label %96

.thread:                                          ; preds = %46, %49
  %.03953 = phi i32 [ %50, %49 ], [ %43, %46 ]
  %52 = add nsw i32 %42, 1
  %53 = load i32, ptr %6, align 4, !tbaa !20
  %54 = add nsw i32 %53, 1
  store i32 %54, ptr %6, align 4, !tbaa !20
  %55 = load i32, ptr %4, align 4, !tbaa !20
  %reass.sub51 = sub i32 %55, %.03953
  %56 = add i32 %reass.sub51, 1
  %57 = load ptr, ptr %0, align 8, !tbaa !3
  %58 = getelementptr inbounds nuw i8, ptr %57, i64 296
  %59 = load ptr, ptr %58, align 8
  %60 = call noundef i32 %59(ptr noundef nonnull align 8 dereferenceable(193) %0, i32 noundef 19, i32 noundef 0)
  %61 = icmp slt i32 %.0, %60
  br i1 %61, label %62, label %65

62:                                               ; preds = %.thread
  %63 = call noundef signext i8 @_ZNK6icu_778Calendar9isLenientEv(ptr noundef nonnull align 8 dereferenceable(192) %0)
  %.not48 = icmp eq i8 %63, 0
  br i1 %.not48, label %64, label %65

64:                                               ; preds = %62
  store i32 1, ptr %2, align 4, !tbaa !21
  br label %96

65:                                               ; preds = %62, %.thread
  %.1 = phi i32 [ %.0, %.thread ], [ %60, %62 ]
  %66 = load ptr, ptr %0, align 8, !tbaa !3
  %67 = getelementptr inbounds nuw i8, ptr %66, i64 296
  %68 = load ptr, ptr %67, align 8
  %69 = call noundef i32 %68(ptr noundef nonnull align 8 dereferenceable(193) %0, i32 noundef 19, i32 noundef 3)
  %70 = icmp slt i32 %69, %.1
  br i1 %70, label %71, label %74

71:                                               ; preds = %65
  %72 = call noundef signext i8 @_ZNK6icu_778Calendar9isLenientEv(ptr noundef nonnull align 8 dereferenceable(192) %0)
  %.not49 = icmp eq i8 %72, 0
  br i1 %.not49, label %73, label %74

73:                                               ; preds = %71
  store i32 1, ptr %2, align 4, !tbaa !21
  br label %96

74:                                               ; preds = %71, %65
  %.2 = phi i32 [ %.1, %65 ], [ %69, %71 ]
  %75 = add nsw i32 %.sroa.0.0.extract.trunc, -1
  %76 = getelementptr inbounds nuw i8, ptr %0, i64 8
  %77 = getelementptr inbounds nuw i8, ptr %0, i64 16
  store i32 %75, ptr %77, align 8, !tbaa !20
  %78 = getelementptr inbounds nuw i8, ptr %0, i64 104
  %79 = getelementptr inbounds nuw i8, ptr %0, i64 106
  store i8 1, ptr %79, align 2, !tbaa !23
  %.sroa.0.4.extract.shift = lshr i64 %25, 32
  %.sroa.0.4.extract.trunc = trunc nuw i64 %.sroa.0.4.extract.shift to i32
  %80 = getelementptr inbounds nuw i8, ptr %0, i64 100
  store i32 %.sroa.0.4.extract.trunc, ptr %80, align 4, !tbaa !20
  %81 = getelementptr inbounds nuw i8, ptr %0, i64 127
  store i8 1, ptr %81, align 1, !tbaa !23
  %82 = lshr i64 %26, 32
  %83 = trunc nuw i64 %82 to i32
  %84 = and i32 %83, 1
  %85 = getelementptr inbounds nuw i8, ptr %0, i64 96
  store i32 %84, ptr %85, align 8, !tbaa !20
  %86 = getelementptr inbounds nuw i8, ptr %0, i64 126
  store i8 1, ptr %86, align 2, !tbaa !23
  %87 = getelementptr inbounds nuw i8, ptr %0, i64 84
  store i32 %.2, ptr %87, align 4, !tbaa !20
  %88 = getelementptr inbounds nuw i8, ptr %0, i64 123
  store i8 1, ptr %88, align 1, !tbaa !23
  store i32 %52, ptr %76, align 8, !tbaa !20
  store i8 1, ptr %78, align 8, !tbaa !23
  %89 = load i32, ptr %6, align 4, !tbaa !20
  %90 = getelementptr inbounds nuw i8, ptr %0, i64 12
  store i32 %89, ptr %90, align 4, !tbaa !20
  %91 = getelementptr inbounds nuw i8, ptr %0, i64 105
  store i8 1, ptr %91, align 1, !tbaa !23
  %92 = getelementptr inbounds nuw i8, ptr %0, i64 28
  store i32 %40, ptr %92, align 4, !tbaa !20
  %93 = getelementptr inbounds nuw i8, ptr %0, i64 109
  store i8 1, ptr %93, align 1, !tbaa !23
  %94 = getelementptr inbounds nuw i8, ptr %0, i64 32
  store i32 %56, ptr %94, align 8, !tbaa !20
  %95 = getelementptr inbounds nuw i8, ptr %0, i64 110
  store i8 1, ptr %95, align 2, !tbaa !23
  br label %96

96:                                               ; preds = %64, %74, %73, %49, %29
  call void @llvm.lifetime.end.p0(i64 4, ptr nonnull %6) #8
  br label %97

97:                                               ; preds = %96, %22, %12
  call void @llvm.lifetime.end.p0(i64 32, ptr nonnull %5) #8
  br label %98

98:                                               ; preds = %97, %11
  call void @llvm.lifetime.end.p0(i64 4, ptr nonnull %4) #8
  br label %99

99:                                               ; preds = %3, %98
  ret void
}